; Function Attrs: mustprogress uwtable
define dso_local void @_ZN14CrestExtension10OutputTailERSo(ptr nonnull readnone align 8 captures(none) %0, ptr noundef nonnull align 8 dereferenceable(8) %1) unnamed_addr #5 align 2 {
  %3 = load ptr, ptr @_ZN12AbsExtension4tab_E, align 8, !tbaa !48
  %.not.i = icmp eq ptr %3, null
  br i1 %.not.i, label %4, label %12

4:                                                ; preds = %2
  %5 = load ptr, ptr %1, align 8, !tbaa !4
  %6 = getelementptr i8, ptr %5, i64 -24
  %7 = load i64, ptr %6, align 8
  %8 = getelementptr inbounds i8, ptr %1, i64 %7
  %9 = getelementptr inbounds nuw i8, ptr %8, i64 32
  %10 = load i32, ptr %9, align 8, !tbaa !49
  %11 = or i32 %10, 1
  tail call void @_ZNSt9basic_iosIcSt11char_traitsIcEE5clearESt12_Ios_Iostate(ptr noundef nonnull align 8 dereferenceable(264) %8, i32 noundef %11)
  br label %_ZStlsISt11char_traitsIcEERSt13basic_ostreamIcT_ES5_PKc.exit

12:                                               ; preds = %2
  %13 = tail call noundef i64 @strlen(ptr noundef nonnull dereferenceable(1) %3) #17
  %14 = tail call noundef nonnull align 8 dereferenceable(8) ptr @_ZSt16__ostream_insertIcSt11char_traitsIcEERSt13basic_ostreamIT_T0_ES6_PKS3_l(ptr noundef nonnull align 8 dereferenceable(8) %1, ptr noundef nonnull %3, i64 noundef %13)
  br label %_ZStlsISt11char_traitsIcEERSt13basic_ostreamIcT_ES5_PKc.exit

_ZStlsISt11char_traitsIcEERSt13basic_ostreamIcT_ES5_PKc.exit: ; preds = %4, %12
  %15 = tail call noundef nonnull align 8 dereferenceable(8) ptr @_ZSt16__ostream_insertIcSt11char_traitsIcEERSt13basic_ostreamIT_T0_ES6_PKS3_l(ptr noundef nonnull align 8 dereferenceable(8) %1, ptr noundef nonnull @.str.14, i64 noundef 9)
  %16 = load ptr, ptr %1, align 8, !tbaa !4
  %17 = getelementptr i8, ptr %16, i64 -24
  %18 = load i64, ptr %17, align 8
  %19 = getelementptr inbounds i8, ptr %1, i64 %18
  %20 = getelementptr inbounds nuw i8, ptr %19, i64 240
  %21 = load ptr, ptr %20, align 8, !tbaa !75
  %.not.i.i.i = icmp eq ptr %21, null
  br i1 %.not.i.i.i, label %22, label %_ZSt13__check_facetISt5ctypeIcEERKT_PS3_.exit.i.i

22:                                               ; preds = %_ZStlsISt11char_traitsIcEERSt13basic_ostreamIcT_ES5_PKc.exit
  tail call void @_ZSt16__throw_bad_castv() #18
  unreachable

_ZSt13__check_facetISt5ctypeIcEERKT_PS3_.exit.i.i: ; preds = %_ZStlsISt11char_traitsIcEERSt13basic_ostreamIcT_ES5_PKc.exit
  %23 = getelementptr inbounds nuw i8, ptr %21, i64 56
  %24 = load i8, ptr %23, align 8, !tbaa !82
  %.not.i1.i.i = icmp eq i8 %24, 0
  br i1 %.not.i1.i.i, label %28, label %25

25:                                               ; preds = %_ZSt13__check_facetISt5ctypeIcEERKT_PS3_.exit.i.i
  %26 = getelementptr inbounds nuw i8, ptr %21, i64 67
  %27 = load i8, ptr %26, align 1, !tbaa !46
  br label %_ZSt4endlIcSt11char_traitsIcEERSt13basic_ostreamIT_T0_ES6_.exit

28:                                               ; preds = %_ZSt13__check_facetISt5ctypeIcEERKT_PS3_.exit.i.i
  tail call void @_ZNKSt5ctypeIcE13_M_widen_initEv(ptr noundef nonnull align 8 dereferenceable(570) %21)
  %29 = load ptr, ptr %21, align 8, !tbaa !4
  %30 = getelementptr inbounds nuw i8, ptr %29, i64 48
  %31 = load ptr, ptr %30, align 8
  %32 = tail call noundef signext i8 %31(ptr noundef nonnull align 8 dereferenceable(570) %21, i8 noundef signext 10)
  br label %_ZSt4endlIcSt11char_traitsIcEERSt13basic_ostreamIT_T0_ES6_.exit

_ZSt4endlIcSt11char_traitsIcEERSt13basic_ostreamIT_T0_ES6_.exit: ; preds = %25, %28
  %.0.i.i.i = phi i8 [ %27, %25 ], [ %32, %28 ]
  %33 = tail call noundef nonnull align 8 dereferenceable(8) ptr @_ZNSo3putEc(ptr noundef nonnull align 8 dereferenceable(8) %1, i8 noundef signext %.0.i.i.i)
  %34 = tail call noundef nonnull align 8 dereferenceable(8) ptr @_ZNSo5flushEv(ptr noundef nonnull align 8 dereferenceable(8) %33)
  ret void
}